; Function Attrs: nounwind uwtable
define internal fastcc void @item_link_q(ptr noundef initializes((0, 16)) %0) unnamed_addr #0 {
  %2 = getelementptr inbounds nuw i8, ptr %0, i64 40
  %3 = load i8, ptr %2, align 8, !tbaa !30
  %4 = zext i8 %3 to i64
  %5 = getelementptr inbounds nuw [256 x %union.pthread_mutex_t], ptr @lru_locks, i64 0, i64 %4
  %6 = tail call i32 @pthread_mutex_lock(ptr noundef nonnull %5) #19
  %7 = load i8, ptr %2, align 8, !tbaa !30
  %8 = zext i8 %7 to i64
  %9 = getelementptr inbounds nuw [256 x ptr], ptr @heads, i64 0, i64 %8
  %10 = getelementptr inbounds nuw [256 x ptr], ptr @tails, i64 0, i64 %8
  %11 = getelementptr inbounds nuw i8, ptr %0, i64 8
  store ptr null, ptr %11, align 8, !tbaa !28
  %12 = load ptr, ptr %9, align 8, !tbaa !28
  store ptr %12, ptr %0, align 8, !tbaa !28
  %.not.i = icmp eq ptr %12, null
  br i1 %.not.i, label %15, label %13

13:                                               ; preds = %1
  %14 = getelementptr inbounds nuw i8, ptr %12, i64 8
  store ptr %0, ptr %14, align 8, !tbaa !28
  br label %15

15:                                               ; preds = %13, %1
  store ptr %0, ptr %9, align 8, !tbaa !28
  %16 = load ptr, ptr %10, align 8, !tbaa !28
  %17 = icmp eq ptr %16, null
  br i1 %17, label %18, label %19

18:                                               ; preds = %15
  store ptr %0, ptr %10, align 8, !tbaa !28
  br label %19

19:                                               ; preds = %18, %15
  %20 = load i8, ptr %2, align 8, !tbaa !30
  %21 = zext i8 %20 to i64
  %22 = getelementptr inbounds nuw [256 x i32], ptr @sizes, i64 0, i64 %21
  %23 = load i32, ptr %22, align 4, !tbaa !22
  %24 = add i32 %23, 1
  store i32 %24, ptr %22, align 4, !tbaa !22
  %25 = getelementptr inbounds nuw i8, ptr %0, i64 38
  %26 = load i16, ptr %25, align 2, !tbaa !31
  %27 = zext i16 %26 to i32
  %28 = and i32 %27, 128
  %.not26.i = icmp eq i32 %28, 0
  %29 = getelementptr inbounds nuw i8, ptr %0, i64 41
  %30 = load i8, ptr %29, align 1, !tbaa !30
  %31 = zext i8 %30 to i64
  br i1 %.not26.i, label %42, label %32

32:                                               ; preds = %19
  %33 = lshr i32 %27, 6
  %34 = and i32 %33, 4
  %35 = shl nuw nsw i32 %27, 2
  %36 = and i32 %35, 8
  %37 = getelementptr inbounds nuw [256 x i64], ptr @sizes_bytes, i64 0, i64 %21
  %38 = load i64, ptr %37, align 8, !tbaa !14
  %narrow.i = add nuw nsw i32 %34, 61
  %narrow31.i = add nuw nsw i32 %narrow.i, %36
  %39 = zext nneg i32 %narrow31.i to i64
  %40 = add nuw nsw i64 %39, %31
  %41 = add i64 %40, %38
  store i64 %41, ptr %37, align 8, !tbaa !14
  br label %do_item_link_q.exit

42:                                               ; preds = %19
  %43 = getelementptr inbounds nuw i8, ptr %0, i64 32
  %44 = load i32, ptr %43, align 8, !tbaa !22
  %45 = sext i32 %44 to i64
  %46 = lshr i32 %27, 6
  %47 = and i32 %46, 4
  %48 = shl nuw nsw i32 %27, 2
  %49 = and i32 %48, 8
  %50 = getelementptr inbounds nuw [256 x i64], ptr @sizes_bytes, i64 0, i64 %21
  %51 = load i64, ptr %50, align 8, !tbaa !14
  %52 = or disjoint i32 %49, %47
  %53 = or disjoint i32 %52, 49
  %54 = zext nneg i32 %53 to i64
  %55 = add nuw nsw i64 %54, %31
  %56 = add nsw i64 %55, %45
  %57 = add i64 %56, %51
  store i64 %57, ptr %50, align 8, !tbaa !14
  br label %do_item_link_q.exit

do_item_link_q.exit:                              ; preds = %32, %42
  %58 = getelementptr inbounds nuw [256 x %union.pthread_mutex_t], ptr @lru_locks, i64 0, i64 %21
  %59 = tail call i32 @pthread_mutex_unlock(ptr noundef nonnull %58) #19
  ret void
}